; Function Attrs: mustprogress uwtable
define noundef zeroext i1 @_ZNK32pxrInternal_v0_24__pxrReserved__15UsdRelationship20_GetForwardedTargetsEPSt6vectorINS_7SdfPathESaIS2_EEb(ptr noundef nonnull align 8 dereferenceable(32) %0, ptr noundef %1, i1 noundef zeroext %2) local_unnamed_addr #0 align 2 personality ptr @__gxx_personality_v0 {
  %4 = alloca %"class.std::set", align 8
  %5 = alloca %"class.std::set", align 8
  %6 = alloca i8, align 1
  %7 = getelementptr inbounds nuw i8, ptr %4, i64 8
  store i32 0, ptr %7, align 8
  %8 = getelementptr inbounds nuw i8, ptr %4, i64 16
  store ptr null, ptr %8, align 8
  %9 = getelementptr inbounds nuw i8, ptr %4, i64 24
  store ptr %7, ptr %9, align 8
  %10 = getelementptr inbounds nuw i8, ptr %4, i64 32
  store ptr %7, ptr %10, align 8
  %11 = getelementptr inbounds nuw i8, ptr %4, i64 40
  store i64 0, ptr %11, align 8
  %12 = getelementptr inbounds nuw i8, ptr %5, i64 8
  store i32 0, ptr %12, align 8
  %13 = getelementptr inbounds nuw i8, ptr %5, i64 16
  store ptr null, ptr %13, align 8
  %14 = getelementptr inbounds nuw i8, ptr %5, i64 24
  store ptr %12, ptr %14, align 8
  %15 = getelementptr inbounds nuw i8, ptr %5, i64 32
  store ptr %12, ptr %15, align 8
  %16 = getelementptr inbounds nuw i8, ptr %5, i64 40
  store i64 0, ptr %16, align 8
  store i8 0, ptr %6, align 1
  %17 = invoke noundef zeroext i1 @_ZNK32pxrInternal_v0_24__pxrReserved__15UsdRelationship24_GetForwardedTargetsImplEPSt3setINS_7SdfPathESt4lessIS2_ESaIS2_EES7_PSt6vectorIS2_S5_EPbb(ptr noundef nonnull align 8 dereferenceable(32) %0, ptr noundef nonnull %4, ptr noundef nonnull %5, ptr noundef %1, ptr noundef nonnull %6, i1 noundef zeroext %2)
          to label %18 unwind label %31

18:                                               ; preds = %3
  %19 = load i8, ptr %6, align 1
  %20 = load ptr, ptr %13, align 8
  invoke void @_ZNSt8_Rb_treeIN32pxrInternal_v0_24__pxrReserved__7SdfPathES1_St9_IdentityIS1_ESt4lessIS1_ESaIS1_EE8_M_eraseEPSt13_Rb_tree_nodeIS1_E(ptr noundef nonnull align 8 dereferenceable(48) %5, ptr noundef %20)
          to label %_ZNSt3setIN32pxrInternal_v0_24__pxrReserved__7SdfPathESt4lessIS1_ESaIS1_EED2Ev.exit unwind label %21

21:                                               ; preds = %18
  %22 = landingpad { ptr, i32 }
          catch ptr null
  %23 = extractvalue { ptr, i32 } %22, 0
  call void @__clang_call_terminate(ptr %23) #15
  unreachable

_ZNSt3setIN32pxrInternal_v0_24__pxrReserved__7SdfPathESt4lessIS1_ESaIS1_EED2Ev.exit: ; preds = %18
  %24 = load ptr, ptr %8, align 8
  invoke void @_ZNSt8_Rb_treeIN32pxrInternal_v0_24__pxrReserved__7SdfPathES1_St9_IdentityIS1_ESt4lessIS1_ESaIS1_EE8_M_eraseEPSt13_Rb_tree_nodeIS1_E(ptr noundef nonnull align 8 dereferenceable(48) %4, ptr noundef %24)
          to label %_ZNSt3setIN32pxrInternal_v0_24__pxrReserved__7SdfPathESt4lessIS1_ESaIS1_EED2Ev.exit4 unwind label %25

25:                                               ; preds = %_ZNSt3setIN32pxrInternal_v0_24__pxrReserved__7SdfPathESt4lessIS1_ESaIS1_EED2Ev.exit
  %26 = landingpad { ptr, i32 }
          catch ptr null
  %27 = extractvalue { ptr, i32 } %26, 0
  call void @__clang_call_terminate(ptr %27) #15
  unreachable

_ZNSt3setIN32pxrInternal_v0_24__pxrReserved__7SdfPathESt4lessIS1_ESaIS1_EED2Ev.exit4: ; preds = %_ZNSt3setIN32pxrInternal_v0_24__pxrReserved__7SdfPathESt4lessIS1_ESaIS1_EED2Ev.exit
  %28 = trunc i8 %19 to i1
  %29 = xor i1 %28, true
  %30 = select i1 %17, i1 %29, i1 false
  ret i1 %30

31:                                               ; preds = %3
  %32 = landingpad { ptr, i32 }
          cleanup
  call void @_ZNSt3setIN32pxrInternal_v0_24__pxrReserved__7SdfPathESt4lessIS1_ESaIS1_EED2Ev(ptr noundef nonnull align 8 dereferenceable(48) %5) #16
  call void @_ZNSt3setIN32pxrInternal_v0_24__pxrReserved__7SdfPathESt4lessIS1_ESaIS1_EED2Ev(ptr noundef nonnull align 8 dereferenceable(48) %4) #16
  resume { ptr, i32 } %32
}